; Function Attrs: nounwind uwtable
define internal void @__cxx_global_array_dtor(ptr readnone captures(none) %0) #19 section ".text.startup" personality ptr @__gxx_personality_v0 {
  br label %2

2:                                                ; preds = %_ZN26ImGuiSelectionBasicStorageD2Ev.exit, %1
  %3 = phi ptr [ getelementptr inbounds nuw (i8, ptr @_ZZL25ShowDemoWindowMultiSelectP19ImGuiDemoWindowDataE15selections_data, i64 144), %1 ], [ %4, %_ZN26ImGuiSelectionBasicStorageD2Ev.exit ]
  %4 = getelementptr inbounds i8, ptr %3, i64 -48
  %5 = getelementptr inbounds i8, ptr %3, i64 -8
  %6 = load ptr, ptr %5, align 8, !tbaa !456
  %.not.i.i.i = icmp eq ptr %6, null
  br i1 %.not.i.i.i, label %_ZN26ImGuiSelectionBasicStorageD2Ev.exit, label %7

7:                                                ; preds = %2
  invoke void @_ZN5ImGui7MemFreeEPv(ptr noundef nonnull %6)
          to label %_ZN26ImGuiSelectionBasicStorageD2Ev.exit unwind label %8

8:                                                ; preds = %7
  %9 = landingpad { ptr, i32 }
          catch ptr null
  %10 = extractvalue { ptr, i32 } %9, 0
  tail call void @__clang_call_terminate(ptr %10) #35
  unreachable

_ZN26ImGuiSelectionBasicStorageD2Ev.exit:         ; preds = %2, %7
  %11 = icmp eq ptr %4, @_ZZL25ShowDemoWindowMultiSelectP19ImGuiDemoWindowDataE15selections_data
  br i1 %11, label %12, label %2

12:                                               ; preds = %_ZN26ImGuiSelectionBasicStorageD2Ev.exit
  ret void
}